Certificate:
    Data:
        Version: 3 (0x2)
        Serial Number: 2 (0x2)
        Signature Algorithm: sha256WithRSAEncryption
        Issuer: C=UK, ST=London, O=FOUNDRIES.IO, OU=dev, CN=John Doe/emailAddress=john.doe@foundries.io
        Validity
            Not Before: Aug 14 14:35:12 2025 GMT
            Not After : Aug 12 14:35:12 2035 GMT
        Subject: C=UK, ST=London, O=FOUNDRIES.IO, OU=dev, CN=Chris Wall/emailAddress=chris.wall@foundries.io
        Subject Public Key Info:
            Public Key Algorithm: rsaEncryption
                Public-Key: (2048 bit)
                Modulus:
                    00:a4:33:98:d7:96:8b:97:a2:14:a4:6a:c6:07:2c:
                    ca:6a:a1:0a:2c:83:eb:a7:52:e0:3b:ab:33:5e:62:
                    ac:a2:60:00:ef:ff:ec:6c:fb:23:11:65:2f:b5:51:
                    b0:9e:6e:78:6c:d2:58:f7:42:88:76:50:c8:e1:15:
                    8c:c7:66:5f:ba:1e:f7:7e:01:5d:1a:e8:c9:fe:7b:
                    31:89:8e:ac:03:99:b4:5b:59:a4:48:b0:b1:59:45:
                    de:bc:3f:70:3d:0e:f1:c4:35:82:da:02:73:61:7e:
                    fa:80:fa:df:33:5c:dd:49:2b:10:41:54:cd:98:a8:
                    cf:91:40:d6:35:f4:bd:d5:a3:db:a9:19:33:25:16:
                    c3:79:8f:6d:5c:35:b8:85:c7:f4:9f:a2:c7:fc:08:
                    8e:6d:95:a7:b3:fa:01:f0:dd:38:e3:77:e1:4e:c6:
                    72:00:63:47:99:9b:11:c6:4c:f3:cd:a8:84:46:63:
                    ea:d4:5d:1e:55:68:0d:f4:80:50:10:48:d1:25:91:
                    96:4d:ac:7f:42:3d:d5:2e:14:79:7b:d2:fe:70:01:
                    4d:56:50:ca:75:6b:eb:ec:ea:26:b0:27:33:50:5e:
                    e4:e2:cb:48:73:8c:23:c2:48:a3:5d:4e:2d:c4:70:
                    64:57:18:f9:75:21:33:f2:46:ac:c2:00:39:4b:94:
                    5f:eb
                Exponent: 65537 (0x10001)
        X509v3 extensions:
            X509v3 Basic Constraints: 
                CA:FALSE
            X509v3 Subject Key Identifier: 
                6E:BB:32:D3:1B:4A:98:BB:CC:A6:46:44:3E:D1:80:8B:48:0D:0D:96
            X509v3 Authority Key Identifier: 
                D8:ED:B8:FD:CC:99:1F:9A:52:47:68:AF:FD:8B:39:8C:8A:37:5D:F1
    Signature Algorithm: sha256WithRSAEncryption
    Signature Value:
        3a:9a:d3:11:db:d7:cb:f0:8d:7a:95:af:d1:58:21:22:1b:bf:
        95:7b:69:7e:c2:31:4d:e5:b2:df:ca:57:fe:be:ad:a2:81:9c:
        73:02:e2:c0:51:f8:84:18:e5:83:e9:33:e1:49:9e:33:80:b6:
        9d:b7:8b:46:e4:2c:b9:e7:74:65:ec:67:55:b2:53:3c:2c:82:
        98:10:83:a8:2a:79:c1:d5:97:99:ae:15:c3:90:46:2b:12:cb:
        a1:06:70:2f:3d:f6:16:29:d5:21:b1:c2:b1:a3:cd:d2:bf:79:
        28:e7:72:a3:69:8e:e2:d2:dc:bf:3b:51:e6:51:4a:6f:9b:65:
        04:67:fb:de:b8:91:b4:c5:a0:44:a7:ca:c0:aa:43:4d:e5:46:
        e5:d3:a1:2f:12:77:ee:e6:5a:e1:d0:a4:9e:5b:43:00:2c:e8:
        15:74:90:53:63:19:5d:fc:3a:b0:97:7b:08:34:fb:08:a7:f9:
        b6:25:64:8a:a9:cc:05:83:eb:50:7a:cf:9c:af:cf:68:0d:de:
        68:79:6b:5d:75:f6:78:d8:5e:c0:e6:c8:50:7c:fa:f0:23:98:
        7e:6b:05:07:2f:45:2d:82:48:c1:47:78:f3:d5:f2:8c:98:f6:
        65:1d:70:95:62:27:79:e8:d2:c9:17:53:76:0d:2d:d0:22:cd:
        90:2a:a4:e1
-----BEGIN CERTIFICATE-----
MIIDxTCCAq2gAwIBAgIBAjANBgkqhkiG9w0BAQsFADB8MQswCQYDVQQGEwJVSzEP
MA0GA1UECAwGTG9uZG9uMRUwEwYDVQQKDAxGT1VORFJJRVMuSU8xDDAKBgNVBAsM
A2RldjERMA8GA1UEAwwISm9obiBEb2UxJDAiBgkqhkiG9w0BCQEWFWpvaG4uZG9l
QGZvdW5kcmllcy5pbzAeFw0yNTA4MTQxNDM1MTJaFw0zNTA4MTIxNDM1MTJaMIGA
MQswCQYDVQQGEwJVSzEPMA0GA1UECAwGTG9uZG9uMRUwEwYDVQQKDAxGT1VORFJJ
RVMuSU8xDDAKBgNVBAsMA2RldjETMBEGA1UEAwwKQ2hyaXMgV2FsbDEmMCQGCSqG
SIb3DQEJARYXY2hyaXMud2FsbEBmb3VuZHJpZXMuaW8wggEiMA0GCSqGSIb3DQEB
AQUAA4IBDwAwggEKAoIBAQCkM5jXlouXohSkasYHLMpqoQosg+unUuA7qzNeYqyi
YADv/+xs+yMRZS+1UbCebnhs0lj3Qoh2UMjhFYzHZl+6Hvd+AV0a6Mn+ezGJjqwD
mbRbWaRIsLFZRd68P3A9DvHENYLaAnNhfvqA+t8zXN1JKxBBVM2YqM+RQNY19L3V
o9upGTMlFsN5j21cNbiFx/Sfosf8CI5tlaez+gHw3Tjjd+FOxnIAY0eZmxHGTPPN
qIRGY+rUXR5VaA30gFAQSNElkZZNrH9CPdUuFHl70v5wAU1WUMp1a+vs6iawJzNQ
XuTiy0hzjCPCSKNdTi3EcGRXGPl1ITPyRqzCADlLlF/rAgMBAAGjTTBLMAkGA1Ud
EwQCMAAwHQYDVR0OBBYEFG67MtMbSpi7zKZGRD7RgItIDQ2WMB8GA1UdIwQYMBaA
FNjtuP3MmR+aUkdor/2LOYyKN13xMA0GCSqGSIb3DQEBCwUAA4IBAQA6mtMR29fL
8I16la/RWCEiG7+Ve2l+wjFN5bLfylf+vq2igZxzAuLAUfiEGOWD6TPhSZ4zgLad
t4tG5Cy553Rl7GdVslM8LIKYEIOoKnnB1ZeZrhXDkEYrEsuhBnAvPfYWKdUhscKx
o83Sv3ko53KjaY7i0ty/O1HmUUpvm2UEZ/veuJG0xaBEp8rAqkNN5Ubl06EvEnfu
5lrh0KSeW0MALOgVdJBTYxld/Dqwl3sINPsIp/m2JWSKqcwFg+tQes+cr89oDd5o
eWtddfZ42F7A5shQfPrwI5h+awUHL0UtgkjBR3jz1fKMmPZlHXCVYid56NLJF1N2
DS3QIs2QKqTh
-----END CERTIFICATE-----
