Certificate:
    Data:
        Version: 3 (0x2)
        Serial Number: 305419898 (0x1234567a)
        Signature Algorithm: ecdsa-with-SHA384
        Issuer: CN=CA1_sha384_secp384r1_v3_ca
        Validity
            Not Before: Dec  1 13:22:29 2021 GMT
            Not After : Nov 29 13:22:29 2031 GMT
        Subject: CN=SRK3_sha384_secp384r1_v3_usr
        Subject Public Key Info:
            Public Key Algorithm: id-ecPublicKey
                Public-Key: (384 bit)
                pub:
                    04:25:e4:7c:ff:e6:e6:37:1f:ed:4d:48:03:b4:9e:
                    1e:2e:2b:51:fe:56:fe:0b:70:8d:17:17:49:39:c8:
                    64:ff:f5:e8:f8:8c:6b:73:52:75:cc:ff:f5:fc:ea:
                    d5:98:88:a6:1c:bd:2e:84:19:b9:53:fa:b9:8c:67:
                    16:08:b2:fc:2e:f2:40:8c:71:8a:65:79:3e:87:02:
                    95:a6:9a:e4:91:a0:cd:89:d5:4c:90:9f:92:82:6e:
                    c2:6c:ba:da:76:7e:91
                ASN1 OID: secp384r1
                NIST CURVE: P-384
        X509v3 extensions:
            X509v3 Basic Constraints: 
                CA:FALSE
            Netscape Comment: 
                OpenSSL Generated Certificate
            X509v3 Subject Key Identifier: 
                C1:7B:FA:D4:A7:06:DE:AA:E8:0E:2B:67:91:61:E9:39:62:49:7C:50
            X509v3 Authority Key Identifier: 
                keyid:49:66:1A:BD:41:31:1E:01:FA:52:B7:D9:56:30:4D:1E:85:15:14:AA

    Signature Algorithm: ecdsa-with-SHA384
         30:64:02:30:7b:b1:ef:44:a4:8d:a2:a9:c9:19:90:8e:c2:32:
         a6:78:8e:e3:8d:84:7f:b1:19:d9:4e:dc:f5:72:6a:cd:34:4c:
         c7:e7:be:29:a4:ae:14:68:d8:f6:b1:cc:d4:6a:87:e5:02:30:
         72:fa:47:d6:32:76:22:1e:24:19:b0:8d:5d:18:71:e7:d4:6b:
         9a:71:c1:d2:8c:4a:6a:f2:f7:63:0a:36:45:54:b4:78:2b:09:
         11:da:b6:ae:d9:99:07:8b:e2:8f:a9:ce
-----BEGIN CERTIFICATE-----
MIIB9TCCAXygAwIBAgIEEjRWejAKBggqhkjOPQQDAzAlMSMwIQYDVQQDFBpDQTFf
c2hhMzg0X3NlY3AzODRyMV92M19jYTAeFw0yMTEyMDExMzIyMjlaFw0zMTExMjkx
MzIyMjlaMCcxJTAjBgNVBAMMHFNSSzNfc2hhMzg0X3NlY3AzODRyMV92M191c3Iw
djAQBgcqhkjOPQIBBgUrgQQAIgNiAAQl5Hz/5uY3H+1NSAO0nh4uK1H+Vv4LcI0X
F0k5yGT/9ej4jGtzUnXM//X86tWYiKYcvS6EGblT+rmMZxYIsvwu8kCMcYpleT6H
ApWmmuSRoM2J1UyQn5KCbsJsutp2fpGjezB5MAkGA1UdEwQCMAAwLAYJYIZIAYb4
QgENBB8WHU9wZW5TU0wgR2VuZXJhdGVkIENlcnRpZmljYXRlMB0GA1UdDgQWBBTB
e/rUpwbequgOK2eRYek5Ykl8UDAfBgNVHSMEGDAWgBRJZhq9QTEeAfpSt9lWME0e
hRUUqjAKBggqhkjOPQQDAwNnADBkAjB7se9EpI2iqckZkI7CMqZ4juONhH+xGdlO
3PVyas00TMfnvimkrhRo2PaxzNRqh+UCMHL6R9YydiIeJBmwjV0YcefUa5pxwdKM
Smry92MKNkVUtHgrCRHatq7ZmQeL4o+pzg==
-----END CERTIFICATE-----
