Certificate:
    Data:
        Version: 3 (0x2)
        Serial Number: 305419896 (0x12345678)
        Signature Algorithm: ecdsa-with-SHA384
        Issuer: CN=CA1_sha384_secp384r1_v3_ca
        Validity
            Not Before: Dec  1 13:22:29 2021 GMT
            Not After : Nov 29 13:22:29 2031 GMT
        Subject: CN=SRK1_sha384_secp384r1_v3_usr
        Subject Public Key Info:
            Public Key Algorithm: id-ecPublicKey
                Public-Key: (384 bit)
                pub:
                    04:3f:80:0d:c5:20:b0:dd:c8:48:15:78:79:63:1e:
                    01:b3:88:44:27:1a:47:73:d7:ca:a8:58:d2:56:65:
                    44:d2:44:c4:00:92:bf:d8:ed:66:64:7d:e9:0e:a7:
                    c3:dd:e0:49:92:3f:8d:21:66:cf:c4:5d:98:d8:70:
                    3b:39:01:c6:4a:22:91:1d:b0:b9:6c:31:9d:c3:a3:
                    a4:b1:d9:0a:6c:f0:74:2f:1b:7d:f4:4f:76:4a:6e:
                    47:fc:ca:49:ea:a9:30
                ASN1 OID: secp384r1
                NIST CURVE: P-384
        X509v3 extensions:
            X509v3 Basic Constraints: 
                CA:FALSE
            Netscape Comment: 
                OpenSSL Generated Certificate
            X509v3 Subject Key Identifier: 
                06:06:D7:E7:A9:D1:F1:8D:A8:93:8D:77:B2:0E:6E:84:59:79:11:45
            X509v3 Authority Key Identifier: 
                keyid:49:66:1A:BD:41:31:1E:01:FA:52:B7:D9:56:30:4D:1E:85:15:14:AA

    Signature Algorithm: ecdsa-with-SHA384
         30:65:02:30:3b:0a:52:34:58:bc:59:43:02:e9:55:f0:76:49:
         ea:08:01:49:84:49:5c:33:60:4e:49:a0:d9:d6:6f:c6:e9:41:
         39:69:f1:3d:c7:50:3f:1c:05:a2:82:bb:a9:0b:7b:f9:02:31:
         00:a6:02:16:bb:41:fa:5e:aa:63:e2:7f:f0:60:90:b8:9d:14:
         ec:53:61:13:5b:5e:0e:43:48:37:a8:13:04:41:ac:5e:b7:b7:
         a9:67:ea:16:54:52:18:52:54:b8:56:d6:a6
-----BEGIN CERTIFICATE-----
MIIB9jCCAXygAwIBAgIEEjRWeDAKBggqhkjOPQQDAzAlMSMwIQYDVQQDFBpDQTFf
c2hhMzg0X3NlY3AzODRyMV92M19jYTAeFw0yMTEyMDExMzIyMjlaFw0zMTExMjkx
MzIyMjlaMCcxJTAjBgNVBAMMHFNSSzFfc2hhMzg0X3NlY3AzODRyMV92M191c3Iw
djAQBgcqhkjOPQIBBgUrgQQAIgNiAAQ/gA3FILDdyEgVeHljHgGziEQnGkdz18qo
WNJWZUTSRMQAkr/Y7WZkfekOp8Pd4EmSP40hZs/EXZjYcDs5AcZKIpEdsLlsMZ3D
o6Sx2Qps8HQvG330T3ZKbkf8yknqqTCjezB5MAkGA1UdEwQCMAAwLAYJYIZIAYb4
QgENBB8WHU9wZW5TU0wgR2VuZXJhdGVkIENlcnRpZmljYXRlMB0GA1UdDgQWBBQG
BtfnqdHxjaiTjXeyDm6EWXkRRTAfBgNVHSMEGDAWgBRJZhq9QTEeAfpSt9lWME0e
hRUUqjAKBggqhkjOPQQDAwNoADBlAjA7ClI0WLxZQwLpVfB2SeoIAUmESVwzYE5J
oNnWb8bpQTlp8T3HUD8cBaKCu6kLe/kCMQCmAha7QfpeqmPif/BgkLidFOxTYRNb
Xg5DSDeoEwRBrF63t6ln6hZUUhhSVLhW1qY=
-----END CERTIFICATE-----
