Certificate:
    Data:
        Version: 3 (0x2)
        Serial Number: 305419897 (0x12345679)
        Signature Algorithm: ecdsa-with-SHA384
        Issuer: CN=CA1_sha384_secp384r1_v3_ca
        Validity
            Not Before: Dec  1 13:22:29 2021 GMT
            Not After : Nov 29 13:22:29 2031 GMT
        Subject: CN=SRK2_sha384_secp384r1_v3_usr
        Subject Public Key Info:
            Public Key Algorithm: id-ecPublicKey
                Public-Key: (384 bit)
                pub:
                    04:78:1f:f0:87:21:9c:d1:4a:bf:9b:e6:3c:f3:30:
                    5e:ef:6c:7b:94:6a:f7:8c:c3:bc:db:bf:48:69:7f:
                    29:4b:2c:4f:8d:1a:be:ef:b4:5b:6c:e4:f9:b5:40:
                    27:7b:2b:1a:7e:89:98:8f:41:ed:7d:36:af:33:25:
                    e5:4a:05:0f:08:a2:10:f5:11:e1:e5:af:67:67:77:
                    82:b9:cb:4e:3c:73:90:d4:71:11:02:a4:61:0a:a3:
                    d8:6a:1b:a0:a6:5e:b2
                ASN1 OID: secp384r1
                NIST CURVE: P-384
        X509v3 extensions:
            X509v3 Basic Constraints: 
                CA:FALSE
            Netscape Comment: 
                OpenSSL Generated Certificate
            X509v3 Subject Key Identifier: 
                56:41:D0:6A:BC:AE:65:56:32:37:1E:F1:F2:E5:9B:4C:77:14:C5:A8
            X509v3 Authority Key Identifier: 
                keyid:49:66:1A:BD:41:31:1E:01:FA:52:B7:D9:56:30:4D:1E:85:15:14:AA

    Signature Algorithm: ecdsa-with-SHA384
         30:65:02:31:00:8f:7a:f8:9f:59:da:92:a4:45:1c:79:81:a4:
         47:ef:c1:05:01:e4:d2:90:43:4d:3a:ba:92:5b:fa:a2:2a:bd:
         b2:a7:0c:9e:87:33:6a:40:83:69:bb:cf:6d:95:d4:d2:9f:02:
         30:72:1f:09:d4:c6:c8:22:53:d6:d2:84:5d:d1:59:85:a4:c2:
         0d:4d:99:ff:fe:ae:4f:80:ac:ae:d3:27:51:dd:a8:0f:39:e0:
         47:08:20:ff:1b:1c:a8:5c:1b:83:83:af:5e
-----BEGIN CERTIFICATE-----
MIIB9jCCAXygAwIBAgIEEjRWeTAKBggqhkjOPQQDAzAlMSMwIQYDVQQDFBpDQTFf
c2hhMzg0X3NlY3AzODRyMV92M19jYTAeFw0yMTEyMDExMzIyMjlaFw0zMTExMjkx
MzIyMjlaMCcxJTAjBgNVBAMMHFNSSzJfc2hhMzg0X3NlY3AzODRyMV92M191c3Iw
djAQBgcqhkjOPQIBBgUrgQQAIgNiAAR4H/CHIZzRSr+b5jzzMF7vbHuUaveMw7zb
v0hpfylLLE+NGr7vtFts5Pm1QCd7Kxp+iZiPQe19Nq8zJeVKBQ8IohD1EeHlr2dn
d4K5y048c5DUcRECpGEKo9hqG6CmXrKjezB5MAkGA1UdEwQCMAAwLAYJYIZIAYb4
QgENBB8WHU9wZW5TU0wgR2VuZXJhdGVkIENlcnRpZmljYXRlMB0GA1UdDgQWBBRW
QdBqvK5lVjI3HvHy5ZtMdxTFqDAfBgNVHSMEGDAWgBRJZhq9QTEeAfpSt9lWME0e
hRUUqjAKBggqhkjOPQQDAwNoADBlAjEAj3r4n1nakqRFHHmBpEfvwQUB5NKQQ006
upJb+qIqvbKnDJ6HM2pAg2m7z22V1NKfAjByHwnUxsgiU9bShF3RWYWkwg1Nmf/+
rk+ArK7TJ1HdqA854EcIIP8bHKhcG4ODr14=
-----END CERTIFICATE-----
