Certificate:
    Data:
        Version: 3 (0x2)
        Serial Number: 305419899 (0x1234567b)
        Signature Algorithm: ecdsa-with-SHA384
        Issuer: CN=CA1_sha384_secp384r1_v3_ca
        Validity
            Not Before: Dec  1 13:22:29 2021 GMT
            Not After : Nov 29 13:22:29 2031 GMT
        Subject: CN=SRK4_sha384_secp384r1_v3_usr
        Subject Public Key Info:
            Public Key Algorithm: id-ecPublicKey
                Public-Key: (384 bit)
                pub:
                    04:cf:24:db:cb:7f:ec:04:c7:9b:a8:74:59:34:c8:
                    59:d0:46:61:3f:47:73:1d:0e:ac:30:f2:3d:ad:7e:
                    f4:91:37:39:37:fc:d4:6c:2a:1f:af:f2:ea:5c:55:
                    35:3a:ea:aa:51:15:8f:05:3d:df:4f:13:9c:8a:d4:
                    60:58:e3:44:21:4e:4c:e4:68:b7:0f:a4:01:fb:d6:
                    b6:00:63:c7:6c:ab:cc:c9:72:0f:2b:7f:fe:1f:a2:
                    38:4e:13:20:1a:10:15
                ASN1 OID: secp384r1
                NIST CURVE: P-384
        X509v3 extensions:
            X509v3 Basic Constraints: 
                CA:FALSE
            Netscape Comment: 
                OpenSSL Generated Certificate
            X509v3 Subject Key Identifier: 
                DD:A7:0C:F1:86:32:EA:F1:CA:2B:FB:66:FE:13:29:4F:81:EB:5C:E6
            X509v3 Authority Key Identifier: 
                keyid:49:66:1A:BD:41:31:1E:01:FA:52:B7:D9:56:30:4D:1E:85:15:14:AA

    Signature Algorithm: ecdsa-with-SHA384
         30:66:02:31:00:df:3d:39:c2:51:e3:40:d2:24:f0:0f:10:f1:
         56:1c:c0:44:c2:bc:8f:90:7a:7b:8c:77:81:c6:22:55:18:b6:
         a1:1b:7d:76:cb:e1:67:e8:00:bc:08:2c:20:08:03:81:cd:02:
         31:00:c7:c3:15:8d:b8:10:b5:99:dc:f2:24:90:97:00:a1:c0:
         62:f3:33:ff:71:92:7d:2a:17:96:bd:e5:11:fc:7e:69:98:4e:
         19:f7:a5:ee:6d:46:5a:cd:f1:da:ae:6c:1c:09
-----BEGIN CERTIFICATE-----
MIIB9zCCAXygAwIBAgIEEjRWezAKBggqhkjOPQQDAzAlMSMwIQYDVQQDFBpDQTFf
c2hhMzg0X3NlY3AzODRyMV92M19jYTAeFw0yMTEyMDExMzIyMjlaFw0zMTExMjkx
MzIyMjlaMCcxJTAjBgNVBAMMHFNSSzRfc2hhMzg0X3NlY3AzODRyMV92M191c3Iw
djAQBgcqhkjOPQIBBgUrgQQAIgNiAATPJNvLf+wEx5uodFk0yFnQRmE/R3MdDqww
8j2tfvSRNzk3/NRsKh+v8upcVTU66qpRFY8FPd9PE5yK1GBY40QhTkzkaLcPpAH7
1rYAY8dsq8zJcg8rf/4fojhOEyAaEBWjezB5MAkGA1UdEwQCMAAwLAYJYIZIAYb4
QgENBB8WHU9wZW5TU0wgR2VuZXJhdGVkIENlcnRpZmljYXRlMB0GA1UdDgQWBBTd
pwzxhjLq8cor+2b+EylPgetc5jAfBgNVHSMEGDAWgBRJZhq9QTEeAfpSt9lWME0e
hRUUqjAKBggqhkjOPQQDAwNpADBmAjEA3z05wlHjQNIk8A8Q8VYcwETCvI+QenuM
d4HGIlUYtqEbfXbL4WfoALwILCAIA4HNAjEAx8MVjbgQtZnc8iSQlwChwGLzM/9x
kn0qF5a95RH8fmmYThn3pe5tRlrN8dqubBwJ
-----END CERTIFICATE-----
