Certificate:
    Data:
        Version: 3 (0x2)
        Serial Number: 3 (0x3)
        Signature Algorithm: sha256WithRSAEncryption
        Issuer: CN=SRK_2_sha256_2048
        Validity
            Not Before: Dec  7 17:22:55 2021 GMT
            Not After : Dec  5 17:22:55 2031 GMT
        Subject: CN=IMG_2_sha256_2048
        Subject Public Key Info:
            Public Key Algorithm: rsaEncryption
                RSA Public-Key: (2048 bit)
                Modulus:
                    00:dd:64:d2:ba:84:e1:77:e8:f9:ff:38:14:48:ea:
                    47:c8:85:eb:71:4f:e9:99:d3:3f:d8:fe:af:0a:ed:
                    8f:f5:77:9a:8a:e3:91:52:fd:3f:69:78:b6:3a:33:
                    4f:e2:5d:9e:a1:c5:5c:13:30:3e:cb:1a:8f:3c:14:
                    4c:10:fc:36:fc:cd:c4:d8:6c:0b:bc:a2:04:43:a8:
                    d7:e4:6e:45:bf:7d:d3:aa:94:65:ce:de:59:a8:3b:
                    5a:54:13:11:87:80:96:e9:29:95:07:7a:21:9b:45:
                    49:b5:e1:e0:70:09:be:be:ac:88:b9:f4:25:61:8f:
                    c0:27:c9:01:de:7d:2b:11:cc:9d:66:5e:4d:20:1b:
                    3b:28:d1:ef:e7:c5:bf:57:e3:39:b6:fb:1e:ec:54:
                    36:a1:f4:da:75:36:59:e4:3f:7d:36:d9:2e:a6:1c:
                    f6:be:c1:1e:4c:3e:f7:ed:c9:28:b2:92:0a:e6:e7:
                    61:ee:97:94:cc:e8:12:24:e8:a3:19:33:61:fe:24:
                    7d:05:9a:51:85:3c:42:4a:a2:07:f8:a7:16:84:a4:
                    01:e5:d5:8a:d8:90:b0:ed:2b:af:72:01:c1:e6:63:
                    53:88:88:74:cc:80:fd:a6:0a:e9:86:c0:59:c6:f1:
                    42:46:66:e7:65:21:60:7d:7c:a7:04:d4:18:ec:df:
                    d0:39
                Exponent: 65537 (0x10001)
        X509v3 extensions:
            X509v3 Basic Constraints: 
                CA:FALSE
            X509v3 Subject Key Identifier: 
                16:9B:1A:C1:C6:0F:D8:52:EA:2B:F0:4A:63:B3:88:93:B3:15:65:36
            X509v3 Authority Key Identifier: 
                keyid:2E:3F:31:CC:10:C6:B7:CB:6A:DA:86:22:47:B9:50:7D:0E:52:C1:D9

    Signature Algorithm: sha256WithRSAEncryption
         6e:73:06:51:12:a5:a5:95:1f:4b:32:42:a1:8f:c2:2c:b4:81:
         70:01:b4:a5:ce:36:c1:bd:5f:4c:90:75:22:f7:24:6a:ba:b9:
         c1:7c:74:ba:4b:be:50:fd:ea:95:7a:db:27:06:a0:46:fa:38:
         42:d3:45:1d:e1:b6:78:b3:45:32:9c:32:95:21:cb:cf:76:08:
         0f:34:c7:cd:37:12:24:fa:dd:a4:b6:0d:60:f3:11:a6:7c:f8:
         f6:36:d7:ab:c6:74:62:87:0a:2e:51:13:3f:90:2c:f4:d1:2e:
         d7:84:21:a4:e0:9b:ce:f7:02:f5:31:14:d2:2f:ed:3a:b2:ba:
         08:5b:b5:e0:ad:a2:ae:64:17:88:91:06:91:6d:7b:b1:26:31:
         45:b2:d4:2f:d7:7a:c7:47:66:95:81:8a:2b:ab:47:25:94:fa:
         c5:81:ef:90:c3:37:e0:6f:00:2b:4f:a4:ea:12:9a:d1:a0:2e:
         26:0f:a9:24:2c:fd:b9:b5:81:37:90:4c:3e:04:af:49:1c:af:
         cd:16:12:49:56:f8:8b:6e:8a:50:96:16:bb:e2:9a:c7:e2:23:
         82:db:f4:66:80:a5:d6:64:52:0c:e8:f1:53:47:7e:4d:f0:d0:
         5c:2e:83:42:bb:ac:77:31:fe:52:88:bb:37:42:a6:d8:e6:6e:
         35:ab:77:69
-----BEGIN CERTIFICATE-----
MIIDADCCAeigAwIBAgIBAzANBgkqhkiG9w0BAQsFADAcMRowGAYDVQQDFBFTUktf
Ml9zaGEyNTZfMjA0ODAeFw0yMTEyMDcxNzIyNTVaFw0zMTEyMDUxNzIyNTVaMBwx
GjAYBgNVBAMMEUlNR18yX3NoYTI1Nl8yMDQ4MIIBIjANBgkqhkiG9w0BAQEFAAOC
AQ8AMIIBCgKCAQEA3WTSuoThd+j5/zgUSOpHyIXrcU/pmdM/2P6vCu2P9XeaiuOR
Uv0/aXi2OjNP4l2eocVcEzA+yxqPPBRMEPw2/M3E2GwLvKIEQ6jX5G5Fv33TqpRl
zt5ZqDtaVBMRh4CW6SmVB3ohm0VJteHgcAm+vqyIufQlYY/AJ8kB3n0rEcydZl5N
IBs7KNHv58W/V+M5tvse7FQ2ofTadTZZ5D99Ntkuphz2vsEeTD737ckospIK5udh
7peUzOgSJOijGTNh/iR9BZpRhTxCSqIH+KcWhKQB5dWK2JCw7SuvcgHB5mNTiIh0
zID9pgrphsBZxvFCRmbnZSFgfXynBNQY7N/QOQIDAQABo00wSzAJBgNVHRMEAjAA
MB0GA1UdDgQWBBQWmxrBxg/YUuor8Epjs4iTsxVlNjAfBgNVHSMEGDAWgBQuPzHM
EMa3y2rahiJHuVB9DlLB2TANBgkqhkiG9w0BAQsFAAOCAQEAbnMGURKlpZUfSzJC
oY/CLLSBcAG0pc42wb1fTJB1Ivckarq5wXx0uku+UP3qlXrbJwagRvo4QtNFHeG2
eLNFMpwylSHLz3YIDzTHzTcSJPrdpLYNYPMRpnz49jbXq8Z0YocKLlETP5As9NEu
14QhpOCbzvcC9TEU0i/tOrK6CFu14K2irmQXiJEGkW17sSYxRbLUL9d6x0dmlYGK
K6tHJZT6xYHvkMM34G8AK0+k6hKa0aAuJg+pJCz9ubWBN5BMPgSvSRyvzRYSSVb4
i26KUJYWu+Kax+Ijgtv0ZoCl1mRSDOjxU0d+TfDQXC6DQrusdzH+Uoi7N0Km2OZu
Nat3aQ==
-----END CERTIFICATE-----
