Certificate:
    Data:
        Version: 3 (0x2)
        Serial Number: 6 (0x6)
        Signature Algorithm: sha256WithRSAEncryption
        Issuer: CN=SRK_4_sha256_2048
        Validity
            Not Before: Dec  7 17:22:56 2021 GMT
            Not After : Dec  5 17:22:56 2031 GMT
        Subject: CN=CSF_4_sha256_2048
        Subject Public Key Info:
            Public Key Algorithm: rsaEncryption
                RSA Public-Key: (2048 bit)
                Modulus:
                    00:e9:54:de:72:80:17:7d:b1:26:51:38:81:07:4b:
                    bc:8f:a2:75:b5:f8:eb:39:8f:82:36:43:8b:9b:c4:
                    66:ad:7a:69:d6:64:e5:88:bb:a5:5f:2d:ea:06:ee:
                    b9:07:b4:43:ec:0d:bc:3b:29:5d:bb:2d:a0:d7:f5:
                    10:09:06:59:63:f5:5a:2f:b7:dd:09:51:f1:74:74:
                    66:8b:6e:a7:3a:ef:df:19:27:ff:a4:f9:b6:82:f2:
                    7a:98:a5:fd:13:93:13:85:b9:3f:70:56:e3:16:f3:
                    0f:1e:52:7a:7f:d9:9b:da:fa:05:7e:d6:f5:18:55:
                    16:a7:51:ad:7f:c7:3d:22:64:56:5b:b7:15:ff:ba:
                    79:ca:e4:74:a6:00:d6:f6:39:a0:1a:19:dc:94:f7:
                    33:31:67:8e:ff:02:c2:b2:71:5d:a4:60:42:0f:c3:
                    f3:8e:de:d0:6e:12:cc:26:57:b2:0b:78:f2:b7:e0:
                    37:8e:70:4d:9c:e1:c1:56:2a:21:0b:48:78:23:f8:
                    50:1a:79:68:bb:db:70:8e:6e:e4:55:ca:db:2e:0b:
                    b9:d1:bf:a7:ee:f8:a0:46:4f:01:73:51:c6:74:c1:
                    d0:65:21:d8:0c:21:6b:9c:2b:74:34:cf:d3:0f:45:
                    25:08:b5:77:dc:5c:71:c7:ac:83:19:91:71:58:8d:
                    c8:81
                Exponent: 65537 (0x10001)
        X509v3 extensions:
            X509v3 Basic Constraints: 
                CA:FALSE
            X509v3 Subject Key Identifier: 
                7A:E9:83:8A:E5:59:7B:31:AA:8C:6A:ED:E0:7E:1E:4E:80:8D:B2:A2
            X509v3 Authority Key Identifier: 
                keyid:E7:BD:96:F4:EA:6F:47:87:FF:59:D1:BC:4D:D8:5B:5F:C0:36:0D:15

    Signature Algorithm: sha256WithRSAEncryption
         65:53:b3:e0:90:f2:0e:1e:34:02:24:56:e2:30:3d:d5:d9:67:
         37:83:8b:54:e0:04:e7:d0:ba:5a:4f:71:15:d1:25:de:43:7f:
         9b:ef:c6:43:f1:2f:6b:26:85:25:03:ac:86:62:78:b4:95:ae:
         dc:5e:bc:50:eb:8c:a8:04:f5:bc:70:27:6e:87:ed:86:09:45:
         46:6b:2d:f0:6f:6f:89:a0:85:e5:b9:3c:b0:b4:ff:09:f8:d6:
         74:54:06:06:43:a8:c2:e6:7d:08:f1:42:3a:76:12:f0:f3:a1:
         91:09:d7:d5:cf:be:fa:07:5a:3a:5e:29:52:3c:c7:18:57:62:
         82:05:f1:3b:85:50:63:89:0c:2c:ae:a7:5a:e2:30:00:d8:e6:
         0d:2a:1f:56:19:ff:5e:6d:6f:a4:c7:f5:6e:49:6b:52:02:09:
         91:c2:d6:ed:52:45:4d:bd:e6:6f:70:a7:03:be:31:95:35:8c:
         25:a2:c9:b1:e0:15:c3:6b:92:5c:e5:4a:e4:5a:8b:6e:4f:31:
         86:07:78:5a:6b:8e:87:71:32:96:03:f5:47:e2:29:65:6c:c4:
         5c:43:1c:a8:78:7d:2e:1f:52:cb:42:9d:fd:90:59:10:cf:86:
         5d:6e:59:be:8e:8f:0b:ee:47:98:09:c3:cc:4c:e2:e5:06:53:
         c1:e1:1a:e5
-----BEGIN CERTIFICATE-----
MIIDADCCAeigAwIBAgIBBjANBgkqhkiG9w0BAQsFADAcMRowGAYDVQQDFBFTUktf
NF9zaGEyNTZfMjA0ODAeFw0yMTEyMDcxNzIyNTZaFw0zMTEyMDUxNzIyNTZaMBwx
GjAYBgNVBAMMEUNTRl80X3NoYTI1Nl8yMDQ4MIIBIjANBgkqhkiG9w0BAQEFAAOC
AQ8AMIIBCgKCAQEA6VTecoAXfbEmUTiBB0u8j6J1tfjrOY+CNkOLm8RmrXpp1mTl
iLulXy3qBu65B7RD7A28Oylduy2g1/UQCQZZY/VaL7fdCVHxdHRmi26nOu/fGSf/
pPm2gvJ6mKX9E5MThbk/cFbjFvMPHlJ6f9mb2voFftb1GFUWp1Gtf8c9ImRWW7cV
/7p5yuR0pgDW9jmgGhnclPczMWeO/wLCsnFdpGBCD8Pzjt7QbhLMJleyC3jyt+A3
jnBNnOHBViohC0h4I/hQGnlou9twjm7kVcrbLgu50b+n7vigRk8Bc1HGdMHQZSHY
DCFrnCt0NM/TD0UlCLV33Fxxx6yDGZFxWI3IgQIDAQABo00wSzAJBgNVHRMEAjAA
MB0GA1UdDgQWBBR66YOK5Vl7MaqMau3gfh5OgI2yojAfBgNVHSMEGDAWgBTnvZb0
6m9Hh/9Z0bxN2FtfwDYNFTANBgkqhkiG9w0BAQsFAAOCAQEAZVOz4JDyDh40AiRW
4jA91dlnN4OLVOAE59C6Wk9xFdEl3kN/m+/GQ/EvayaFJQOshmJ4tJWu3F68UOuM
qAT1vHAnbofthglFRmst8G9viaCF5bk8sLT/CfjWdFQGBkOowuZ9CPFCOnYS8POh
kQnX1c+++gdaOl4pUjzHGFdiggXxO4VQY4kMLK6nWuIwANjmDSofVhn/Xm1vpMf1
bklrUgIJkcLW7VJFTb3mb3CnA74xlTWMJaLJseAVw2uSXOVK5FqLbk8xhgd4WmuO
h3EylgP1R+IpZWzEXEMcqHh9Lh9Sy0Kd/ZBZEM+GXW5Zvo6PC+5HmAnDzEzi5QZT
weEa5Q==
-----END CERTIFICATE-----
