Certificate:
    Data:
        Version: 3 (0x2)
        Serial Number: 2 (0x2)
        Signature Algorithm: sha256WithRSAEncryption
        Issuer: CN=SRK_2_sha256_2048
        Validity
            Not Before: Dec  7 17:22:55 2021 GMT
            Not After : Dec  5 17:22:55 2031 GMT
        Subject: CN=CSF_2_sha256_2048
        Subject Public Key Info:
            Public Key Algorithm: rsaEncryption
                RSA Public-Key: (2048 bit)
                Modulus:
                    00:cc:83:f1:53:96:e4:ae:7f:62:bb:d4:ce:0a:ae:
                    07:89:f9:80:51:6a:79:c6:14:fa:7c:b3:51:f3:da:
                    93:cb:6c:19:ba:69:17:ae:2c:e8:06:87:ec:b8:28:
                    78:4f:81:5d:77:44:00:e8:1c:a6:79:2b:ec:17:87:
                    ce:29:e8:2b:f5:6c:90:29:af:96:e1:ff:7c:3c:cc:
                    a8:0f:cf:5a:06:b5:53:5a:d6:69:19:4e:b8:a9:63:
                    d4:bc:a2:23:45:e7:ee:10:be:d3:13:14:ad:8b:2e:
                    02:35:b4:a0:40:8f:0e:14:e4:d3:0c:04:23:e0:8f:
                    83:9d:6b:f5:c5:18:8a:6b:d6:4e:8d:a7:02:f6:01:
                    d1:40:ef:64:1e:90:04:03:9e:22:b5:96:d4:c3:af:
                    01:36:6e:e1:ee:e7:9f:1e:c8:d1:57:06:5e:6f:cf:
                    0b:94:2c:b0:b0:73:6a:12:ee:ed:24:62:c3:98:f6:
                    d2:6c:fb:58:b5:9a:40:d8:d0:87:47:41:23:fc:1a:
                    7a:c4:db:39:50:70:bd:4a:3d:3e:6a:aa:0a:0c:40:
                    dc:a4:3b:4f:ad:e3:b5:75:b7:15:d5:bb:ab:bf:ea:
                    ac:8a:a0:5a:4b:b8:7c:d7:e4:f2:57:bd:dd:8a:52:
                    ad:d5:79:d4:7e:e6:c2:20:21:ee:02:a2:b4:ce:9d:
                    93:f5
                Exponent: 65537 (0x10001)
        X509v3 extensions:
            X509v3 Basic Constraints: 
                CA:FALSE
            X509v3 Subject Key Identifier: 
                E3:BC:5B:F5:EA:FC:2B:45:BB:1B:8A:51:8C:4B:5E:4A:61:F5:6E:6C
            X509v3 Authority Key Identifier: 
                keyid:2E:3F:31:CC:10:C6:B7:CB:6A:DA:86:22:47:B9:50:7D:0E:52:C1:D9

    Signature Algorithm: sha256WithRSAEncryption
         96:37:fb:e3:37:a5:c9:69:51:c0:5c:fd:17:b1:e0:24:fb:d3:
         ce:25:fe:82:c1:a7:35:01:e6:d2:7a:44:80:d3:70:34:dd:b4:
         89:a7:41:9c:be:2c:eb:c0:9d:04:ea:94:72:44:82:7f:8a:25:
         6f:3d:3d:60:83:81:3f:16:b5:04:15:04:bd:8e:8e:b1:82:5a:
         a8:f5:3d:18:12:ab:e6:08:c6:c6:ff:ac:d2:c3:ec:d3:05:2b:
         cf:95:14:ac:05:8f:4a:95:ff:36:51:ed:5d:61:f2:fb:15:3e:
         1f:22:cf:44:25:02:7b:b1:89:1f:d2:8a:53:4d:12:86:72:79:
         db:c8:68:fe:bc:cf:7a:3b:c2:92:e1:b6:0b:d1:72:1d:d1:c8:
         dd:43:d1:23:ca:80:c9:22:8b:1a:42:f9:8f:39:a3:47:39:15:
         ea:db:a3:14:58:ef:ce:16:de:77:5b:28:6a:f2:0e:0c:dc:e6:
         2a:fc:58:94:b1:48:e3:6d:13:43:63:7b:7a:94:70:07:fd:f7:
         fd:a7:24:13:8d:93:8e:c5:c0:c3:a2:ac:95:8d:a7:77:c9:a5:
         68:11:c1:17:f3:2b:b3:5a:7f:2e:1f:9c:33:bf:37:53:71:76:
         aa:77:f8:ba:d7:12:c7:46:5e:43:12:15:90:b5:87:19:65:7a:
         a1:ce:58:3a
-----BEGIN CERTIFICATE-----
MIIDADCCAeigAwIBAgIBAjANBgkqhkiG9w0BAQsFADAcMRowGAYDVQQDFBFTUktf
Ml9zaGEyNTZfMjA0ODAeFw0yMTEyMDcxNzIyNTVaFw0zMTEyMDUxNzIyNTVaMBwx
GjAYBgNVBAMMEUNTRl8yX3NoYTI1Nl8yMDQ4MIIBIjANBgkqhkiG9w0BAQEFAAOC
AQ8AMIIBCgKCAQEAzIPxU5bkrn9iu9TOCq4HifmAUWp5xhT6fLNR89qTy2wZumkX
rizoBofsuCh4T4Fdd0QA6BymeSvsF4fOKegr9WyQKa+W4f98PMyoD89aBrVTWtZp
GU64qWPUvKIjRefuEL7TExStiy4CNbSgQI8OFOTTDAQj4I+DnWv1xRiKa9ZOjacC
9gHRQO9kHpAEA54itZbUw68BNm7h7uefHsjRVwZeb88LlCywsHNqEu7tJGLDmPbS
bPtYtZpA2NCHR0Ej/Bp6xNs5UHC9Sj0+aqoKDEDcpDtPreO1dbcV1burv+qsiqBa
S7h81+TyV73dilKt1XnUfubCICHuAqK0zp2T9QIDAQABo00wSzAJBgNVHRMEAjAA
MB0GA1UdDgQWBBTjvFv16vwrRbsbilGMS15KYfVubDAfBgNVHSMEGDAWgBQuPzHM
EMa3y2rahiJHuVB9DlLB2TANBgkqhkiG9w0BAQsFAAOCAQEAljf74zelyWlRwFz9
F7HgJPvTziX+gsGnNQHm0npEgNNwNN20iadBnL4s68CdBOqUckSCf4olbz09YIOB
Pxa1BBUEvY6OsYJaqPU9GBKr5gjGxv+s0sPs0wUrz5UUrAWPSpX/NlHtXWHy+xU+
HyLPRCUCe7GJH9KKU00ShnJ528ho/rzPejvCkuG2C9FyHdHI3UPRI8qAySKLGkL5
jzmjRzkV6tujFFjvzhbed1soavIODNzmKvxYlLFI420TQ2N7epRwB/33/ackE42T
jsXAw6KslY2nd8mlaBHBF/Mrs1p/Lh+cM783U3F2qnf4utcSx0ZeQxIVkLWHGWV6
oc5YOg==
-----END CERTIFICATE-----
