Certificate:
    Data:
        Version: 3 (0x2)
        Serial Number: 4 (0x4)
        Signature Algorithm: sha256WithRSAEncryption
        Issuer: CN=SRK_3_sha256_2048
        Validity
            Not Before: Dec  7 17:22:55 2021 GMT
            Not After : Dec  5 17:22:55 2031 GMT
        Subject: CN=CSF_3_sha256_2048
        Subject Public Key Info:
            Public Key Algorithm: rsaEncryption
                RSA Public-Key: (2048 bit)
                Modulus:
                    00:af:50:36:56:9b:a4:d1:15:a6:96:3e:57:b0:01:
                    79:30:99:bc:20:98:90:ef:44:1a:af:69:c3:a5:a3:
                    3e:0c:94:37:6f:68:e9:18:ac:6b:2a:59:f1:54:10:
                    31:59:91:96:ab:33:50:32:ea:ee:2c:1d:75:b5:49:
                    f6:f8:2f:fc:fa:36:ce:76:a4:05:8f:f7:cf:3b:64:
                    f5:70:d2:f0:9f:7e:7d:17:bf:05:1e:f8:5f:17:db:
                    91:c3:c1:84:5e:8b:47:59:b6:2f:f6:58:5c:06:75:
                    6b:db:34:cc:3d:9c:a5:66:7c:3c:a7:13:d7:90:d2:
                    95:46:8f:34:4d:0c:e3:21:74:fc:7f:6f:b5:5d:03:
                    28:a2:a9:64:54:22:02:b6:68:a5:92:a4:1c:88:b6:
                    3a:11:2e:ee:f1:61:ed:a4:d4:d7:fb:10:f4:4c:93:
                    a5:62:9f:5b:9c:26:b3:f0:db:b4:9c:cf:06:23:07:
                    0f:47:a6:05:b1:ec:e3:2f:5a:d8:2b:dc:8a:e6:e9:
                    f3:97:f3:d6:c0:63:d8:af:42:a1:10:65:f7:52:cf:
                    3c:6c:08:92:8e:dc:96:c5:4c:bd:45:5e:8b:c5:25:
                    29:a0:bd:e3:57:91:22:81:be:31:3e:6e:11:b5:f8:
                    27:e1:fc:8a:6f:ac:1a:52:e1:dc:ba:26:d3:22:21:
                    c7:63
                Exponent: 65537 (0x10001)
        X509v3 extensions:
            X509v3 Basic Constraints: 
                CA:FALSE
            X509v3 Subject Key Identifier: 
                86:EF:5F:46:33:FB:51:BA:A0:D0:C3:B9:3E:6B:1F:FC:14:40:FB:42
            X509v3 Authority Key Identifier: 
                keyid:0D:86:12:AD:64:D5:C3:3F:F6:81:92:9A:58:29:AA:76:C4:DB:10:AA

    Signature Algorithm: sha256WithRSAEncryption
         41:b9:68:f4:e6:ba:4a:a7:28:ee:b7:b9:10:e4:02:9f:ba:dd:
         a3:f8:ac:30:ab:ec:f3:7a:23:92:11:68:f8:f0:d6:ca:15:a7:
         00:72:7e:b2:d0:86:70:29:fb:d4:71:53:c5:2e:35:d3:29:85:
         47:42:61:b1:e4:fa:06:ae:1f:d6:ef:3a:8d:a1:f6:cc:06:24:
         49:64:2c:18:2b:66:b0:57:55:47:68:22:57:c9:d6:fd:40:27:
         c9:05:56:1c:7e:45:a2:2b:2d:f0:73:7b:fd:65:c6:bd:c2:1b:
         6e:4d:db:36:85:45:7d:2e:60:af:72:1f:dc:98:fc:b3:6f:91:
         09:53:6c:8d:d8:4e:6e:c7:0f:17:c3:eb:34:e5:84:48:67:90:
         40:67:4a:14:c2:79:1f:9f:a7:1b:99:e0:83:b6:e9:e9:6f:b2:
         fd:e0:17:17:83:a5:8f:c9:89:9c:17:86:bd:51:9b:6c:d4:f9:
         ce:a7:05:27:f6:e8:83:6f:35:79:da:11:76:f7:c5:d3:6b:09:
         5f:41:5f:0e:ad:50:4b:ac:a7:87:f8:85:e8:97:96:fd:3d:0c:
         b1:03:0a:b0:c1:10:0e:02:50:d4:25:4b:28:a1:ae:f8:d7:e1:
         b2:c4:13:52:a1:53:c1:14:8b:5f:17:25:36:84:2b:cd:aa:5a:
         50:a7:69:51
-----BEGIN CERTIFICATE-----
MIIDADCCAeigAwIBAgIBBDANBgkqhkiG9w0BAQsFADAcMRowGAYDVQQDFBFTUktf
M19zaGEyNTZfMjA0ODAeFw0yMTEyMDcxNzIyNTVaFw0zMTEyMDUxNzIyNTVaMBwx
GjAYBgNVBAMMEUNTRl8zX3NoYTI1Nl8yMDQ4MIIBIjANBgkqhkiG9w0BAQEFAAOC
AQ8AMIIBCgKCAQEAr1A2Vpuk0RWmlj5XsAF5MJm8IJiQ70Qar2nDpaM+DJQ3b2jp
GKxrKlnxVBAxWZGWqzNQMuruLB11tUn2+C/8+jbOdqQFj/fPO2T1cNLwn359F78F
HvhfF9uRw8GEXotHWbYv9lhcBnVr2zTMPZylZnw8pxPXkNKVRo80TQzjIXT8f2+1
XQMooqlkVCICtmilkqQciLY6ES7u8WHtpNTX+xD0TJOlYp9bnCaz8Nu0nM8GIwcP
R6YFsezjL1rYK9yK5unzl/PWwGPYr0KhEGX3Us88bAiSjtyWxUy9RV6LxSUpoL3j
V5Eigb4xPm4Rtfgn4fyKb6waUuHcuibTIiHHYwIDAQABo00wSzAJBgNVHRMEAjAA
MB0GA1UdDgQWBBSG719GM/tRuqDQw7k+ax/8FED7QjAfBgNVHSMEGDAWgBQNhhKt
ZNXDP/aBkppYKap2xNsQqjANBgkqhkiG9w0BAQsFAAOCAQEAQblo9Oa6Sqco7re5
EOQCn7rdo/isMKvs83ojkhFo+PDWyhWnAHJ+stCGcCn71HFTxS410ymFR0JhseT6
Bq4f1u86jaH2zAYkSWQsGCtmsFdVR2giV8nW/UAnyQVWHH5Foist8HN7/WXGvcIb
bk3bNoVFfS5gr3If3Jj8s2+RCVNsjdhObscPF8PrNOWESGeQQGdKFMJ5H5+nG5ng
g7bp6W+y/eAXF4Olj8mJnBeGvVGbbNT5zqcFJ/bog281edoRdvfF02sJX0FfDq1Q
S6ynh/iF6JeW/T0MsQMKsMEQDgJQ1CVLKKGu+NfhssQTUqFTwRSLXxclNoQrzapa
UKdpUQ==
-----END CERTIFICATE-----
