Certificate:
    Data:
        Version: 3 (0x2)
        Serial Number: 5 (0x5)
        Signature Algorithm: sha256WithRSAEncryption
        Issuer: CN=SRK_3_sha256_2048
        Validity
            Not Before: Dec  7 17:22:56 2021 GMT
            Not After : Dec  5 17:22:56 2031 GMT
        Subject: CN=IMG_3_sha256_2048
        Subject Public Key Info:
            Public Key Algorithm: rsaEncryption
                RSA Public-Key: (2048 bit)
                Modulus:
                    00:e1:ca:c4:72:c7:01:0d:d3:8f:50:85:87:c2:1b:
                    67:3f:c2:f4:31:04:a3:97:88:f4:da:71:e0:aa:a2:
                    a4:6e:87:ea:c0:20:25:99:2c:c1:99:c9:12:84:67:
                    89:a3:34:50:4e:f2:45:5d:b2:42:0f:1d:61:df:e8:
                    32:a8:d2:14:4b:83:af:bb:21:a3:c3:94:70:da:5c:
                    e5:1a:ab:0a:02:7e:3d:59:1a:2e:eb:ce:e3:1f:de:
                    fe:93:b0:ec:79:f9:37:e3:15:ad:a5:04:36:da:39:
                    0c:fa:93:64:70:de:a0:7a:15:27:69:68:aa:e5:dc:
                    5c:a2:a1:60:95:95:9c:61:59:60:5a:e7:36:2c:cc:
                    b3:3b:e2:50:f6:29:1e:eb:cd:fb:cd:78:03:8a:0f:
                    f4:69:71:4d:29:72:4e:0a:30:9c:d7:ca:3d:94:ea:
                    14:17:f4:64:d0:9a:45:dd:f4:bc:b4:b7:f1:f1:f1:
                    2d:8c:86:45:34:7a:5d:15:aa:53:70:8f:bd:c2:9c:
                    76:46:f9:e8:c2:25:5c:4e:5d:38:2b:5f:27:c7:fe:
                    ed:79:70:6f:f0:db:e7:e5:93:bb:d5:37:f9:02:08:
                    b1:16:09:d0:e7:a2:96:56:05:40:f4:08:87:b9:08:
                    e0:a8:29:b7:25:e7:2a:4d:66:43:7b:c9:64:5f:2e:
                    1b:05
                Exponent: 65537 (0x10001)
        X509v3 extensions:
            X509v3 Basic Constraints: 
                CA:FALSE
            X509v3 Subject Key Identifier: 
                5D:55:94:DF:1E:70:89:C0:D4:6B:53:34:05:58:E8:82:28:E1:72:C2
            X509v3 Authority Key Identifier: 
                keyid:0D:86:12:AD:64:D5:C3:3F:F6:81:92:9A:58:29:AA:76:C4:DB:10:AA

    Signature Algorithm: sha256WithRSAEncryption
         04:98:cb:fd:a9:2c:56:20:42:69:f2:6a:4f:7f:ec:8c:b3:06:
         f7:8c:52:1e:a3:49:59:a0:9f:c2:6a:37:6c:fa:4d:7d:be:9c:
         07:1e:21:ab:0b:e0:86:60:d2:fe:49:87:a4:b6:17:b1:dc:76:
         ba:aa:91:41:2b:c4:7b:33:43:ff:f9:1a:d0:f5:12:4c:47:d4:
         94:23:bd:8a:40:91:a1:0a:cd:fe:17:42:2f:b1:bc:db:62:8b:
         ac:c0:17:31:a7:16:b4:02:8c:6e:a6:c8:97:e0:63:de:96:41:
         5b:ad:f3:1a:cf:4f:b1:8e:ca:db:90:a3:13:69:42:00:36:00:
         bb:ed:b8:64:fd:52:b3:ac:82:61:f2:fb:49:c8:13:45:d5:55:
         fc:2b:cb:d2:ea:54:61:81:bc:e0:cf:c0:81:79:14:2d:41:53:
         5a:b0:a9:1a:88:29:72:90:ba:23:f5:ed:07:21:45:5d:9d:59:
         5f:b7:a2:fb:70:68:12:a7:fe:29:63:95:22:51:07:cf:bf:20:
         e9:85:67:6f:e6:79:d9:db:fe:e9:0c:ea:b4:1c:06:ca:e5:16:
         18:2c:ad:a1:f6:70:03:be:25:64:23:6c:ec:fd:ec:83:2e:d6:
         90:41:33:c3:61:2d:01:11:a6:24:5e:b5:c8:b4:cd:fd:40:23:
         28:74:0d:40
-----BEGIN CERTIFICATE-----
MIIDADCCAeigAwIBAgIBBTANBgkqhkiG9w0BAQsFADAcMRowGAYDVQQDFBFTUktf
M19zaGEyNTZfMjA0ODAeFw0yMTEyMDcxNzIyNTZaFw0zMTEyMDUxNzIyNTZaMBwx
GjAYBgNVBAMMEUlNR18zX3NoYTI1Nl8yMDQ4MIIBIjANBgkqhkiG9w0BAQEFAAOC
AQ8AMIIBCgKCAQEA4crEcscBDdOPUIWHwhtnP8L0MQSjl4j02nHgqqKkbofqwCAl
mSzBmckShGeJozRQTvJFXbJCDx1h3+gyqNIUS4OvuyGjw5Rw2lzlGqsKAn49WRou
687jH97+k7Dsefk34xWtpQQ22jkM+pNkcN6gehUnaWiq5dxcoqFglZWcYVlgWuc2
LMyzO+JQ9ike6837zXgDig/0aXFNKXJOCjCc18o9lOoUF/Rk0JpF3fS8tLfx8fEt
jIZFNHpdFapTcI+9wpx2RvnowiVcTl04K18nx/7teXBv8Nvn5ZO71Tf5AgixFgnQ
56KWVgVA9AiHuQjgqCm3JecqTWZDe8lkXy4bBQIDAQABo00wSzAJBgNVHRMEAjAA
MB0GA1UdDgQWBBRdVZTfHnCJwNRrUzQFWOiCKOFywjAfBgNVHSMEGDAWgBQNhhKt
ZNXDP/aBkppYKap2xNsQqjANBgkqhkiG9w0BAQsFAAOCAQEABJjL/aksViBCafJq
T3/sjLMG94xSHqNJWaCfwmo3bPpNfb6cBx4hqwvghmDS/kmHpLYXsdx2uqqRQSvE
ezND//ka0PUSTEfUlCO9ikCRoQrN/hdCL7G822KLrMAXMacWtAKMbqbIl+Bj3pZB
W63zGs9PsY7K25CjE2lCADYAu+24ZP1Ss6yCYfL7ScgTRdVV/CvL0upUYYG84M/A
gXkULUFTWrCpGogpcpC6I/XtByFFXZ1ZX7ei+3BoEqf+KWOVIlEHz78g6YVnb+Z5
2dv+6QzqtBwGyuUWGCytofZwA74lZCNs7P3sgy7WkEEzw2EtARGmJF61yLTN/UAj
KHQNQA==
-----END CERTIFICATE-----
