Certificate:
    Data:
        Version: 3 (0x2)
        Serial Number: 7 (0x7)
        Signature Algorithm: sha256WithRSAEncryption
        Issuer: CN=SRK_4_sha256_2048
        Validity
            Not Before: Dec  7 17:22:56 2021 GMT
            Not After : Dec  5 17:22:56 2031 GMT
        Subject: CN=IMG_4_sha256_2048
        Subject Public Key Info:
            Public Key Algorithm: rsaEncryption
                RSA Public-Key: (2048 bit)
                Modulus:
                    00:df:3a:17:74:a4:3a:6a:da:d3:02:fb:5c:6f:2a:
                    af:6a:f2:6e:9b:06:e1:5d:20:82:4a:70:d8:2e:a0:
                    46:20:32:74:00:ed:a7:b4:3a:50:78:47:98:6f:f4:
                    b4:56:e7:8e:d4:3c:a1:ed:fc:cf:93:9b:3f:7a:03:
                    a1:1c:6b:88:3d:ec:19:7d:44:ca:ff:81:91:11:ad:
                    9c:b7:fb:bc:4d:21:a7:5c:9d:51:a3:6b:ce:2d:8f:
                    c9:c3:d8:d9:b0:f1:73:10:8c:ab:e6:cc:26:8a:b3:
                    74:8c:93:39:e7:0a:6e:80:49:b6:2f:5a:2a:b6:2d:
                    5e:da:36:06:cf:d7:91:0c:b2:a7:58:51:21:77:a0:
                    7f:30:03:7e:f7:3c:96:71:c0:9a:17:07:cc:72:b1:
                    f4:9d:98:a3:66:fd:5c:0d:4e:b9:a6:a9:a3:7e:0b:
                    e1:80:b2:76:15:4e:8b:11:a6:35:70:9d:23:e3:db:
                    8b:25:31:50:72:07:2c:f0:8f:57:56:61:0a:f1:f4:
                    6c:3f:dc:39:11:37:b4:bc:4a:77:43:de:99:37:da:
                    07:e1:0b:1e:6a:3f:07:5b:72:c4:8f:8d:11:25:d9:
                    5f:64:ea:b1:5a:07:bf:99:a1:e8:56:e0:d8:eb:5d:
                    8a:2f:26:37:06:5d:46:1e:92:3a:ed:a0:5a:ed:c5:
                    af:e3
                Exponent: 65537 (0x10001)
        X509v3 extensions:
            X509v3 Basic Constraints: 
                CA:FALSE
            X509v3 Subject Key Identifier: 
                C7:DF:C4:27:D7:2C:AE:54:D0:65:2A:72:91:94:C1:6F:BA:87:02:9B
            X509v3 Authority Key Identifier: 
                keyid:E7:BD:96:F4:EA:6F:47:87:FF:59:D1:BC:4D:D8:5B:5F:C0:36:0D:15

    Signature Algorithm: sha256WithRSAEncryption
         ad:be:8a:3a:f3:5e:cc:23:88:b7:84:93:dd:6a:5e:ea:2c:0d:
         ee:bb:b8:4f:f0:aa:c9:c6:43:da:22:cb:d7:6b:6a:f8:cc:9a:
         50:a4:be:66:93:0c:c0:10:4c:f3:46:0d:23:e5:c5:65:10:4a:
         62:53:d4:98:29:76:29:3b:ef:9a:89:bf:0a:a9:90:d3:d5:80:
         a6:9d:2b:9d:b2:5d:0c:94:67:63:df:f5:53:60:48:0f:56:36:
         55:44:57:dd:30:f2:b8:92:07:39:20:85:03:f5:d0:ad:d2:f3:
         e7:96:00:f5:cb:04:c0:43:0d:8c:64:a0:bb:30:ee:c6:8a:a4:
         34:b0:c3:74:b6:e8:38:94:45:eb:dd:06:83:cc:66:bf:a6:e0:
         36:0e:7d:b3:d4:70:bc:7a:64:58:81:5b:ca:bc:6a:33:9e:a5:
         d9:ba:9e:dc:7d:96:2b:a4:83:ec:2b:40:47:37:a3:21:66:65:
         04:1b:0f:9d:0b:53:43:fb:d9:cf:bf:13:b8:26:b4:79:a3:6d:
         30:cd:8a:08:77:af:84:46:04:42:c1:ff:cd:2f:a0:07:0e:31:
         f6:7d:38:f4:fb:90:46:64:10:79:30:80:c7:c6:ef:69:71:36:
         34:ef:4a:7d:da:a3:4b:55:f4:6f:90:11:75:94:66:59:fc:04:
         93:ad:0d:63
-----BEGIN CERTIFICATE-----
MIIDADCCAeigAwIBAgIBBzANBgkqhkiG9w0BAQsFADAcMRowGAYDVQQDFBFTUktf
NF9zaGEyNTZfMjA0ODAeFw0yMTEyMDcxNzIyNTZaFw0zMTEyMDUxNzIyNTZaMBwx
GjAYBgNVBAMMEUlNR180X3NoYTI1Nl8yMDQ4MIIBIjANBgkqhkiG9w0BAQEFAAOC
AQ8AMIIBCgKCAQEA3zoXdKQ6atrTAvtcbyqvavJumwbhXSCCSnDYLqBGIDJ0AO2n
tDpQeEeYb/S0VueO1Dyh7fzPk5s/egOhHGuIPewZfUTK/4GREa2ct/u8TSGnXJ1R
o2vOLY/Jw9jZsPFzEIyr5swmirN0jJM55wpugEm2L1oqti1e2jYGz9eRDLKnWFEh
d6B/MAN+9zyWccCaFwfMcrH0nZijZv1cDU65pqmjfgvhgLJ2FU6LEaY1cJ0j49uL
JTFQcgcs8I9XVmEK8fRsP9w5ETe0vEp3Q96ZN9oH4Qseaj8HW3LEj40RJdlfZOqx
Wge/maHoVuDY612KLyY3Bl1GHpI67aBa7cWv4wIDAQABo00wSzAJBgNVHRMEAjAA
MB0GA1UdDgQWBBTH38Qn1yyuVNBlKnKRlMFvuocCmzAfBgNVHSMEGDAWgBTnvZb0
6m9Hh/9Z0bxN2FtfwDYNFTANBgkqhkiG9w0BAQsFAAOCAQEArb6KOvNezCOIt4ST
3Wpe6iwN7ru4T/CqycZD2iLL12tq+MyaUKS+ZpMMwBBM80YNI+XFZRBKYlPUmCl2
KTvvmom/CqmQ09WApp0rnbJdDJRnY9/1U2BID1Y2VURX3TDyuJIHOSCFA/XQrdLz
55YA9csEwEMNjGSguzDuxoqkNLDDdLboOJRF690Gg8xmv6bgNg59s9RwvHpkWIFb
yrxqM56l2bqe3H2WK6SD7CtARzejIWZlBBsPnQtTQ/vZz78TuCa0eaNtMM2KCHev
hEYEQsH/zS+gBw4x9n049PuQRmQQeTCAx8bvaXE2NO9KfdqjS1X0b5ARdZRmWfwE
k60NYw==
-----END CERTIFICATE-----
